; Function Attrs: mustprogress nofree norecurse nosync nounwind willreturn memory(argmem: readwrite, inaccessiblemem: write) uwtable
define void @_ZN6gmxapi16SessionResourcesC2EPNS_11SessionImplENSt7__cxx1112basic_stringIcSt11char_traitsIcESaIcEEE(ptr noundef nonnull align 8 dereferenceable(40) initializes((0, 8)) %0, ptr noundef %1, ptr noundef %2) unnamed_addr #20 align 2 personality ptr @__gxx_personality_v0 {
  store ptr %1, ptr %0, align 8, !tbaa !135
  %4 = getelementptr inbounds nuw i8, ptr %0, i64 8
  %5 = getelementptr inbounds nuw i8, ptr %0, i64 24
  store ptr %5, ptr %4, align 8, !tbaa !103
  %6 = load ptr, ptr %2, align 8, !tbaa !48
  %7 = getelementptr inbounds nuw i8, ptr %2, i64 16
  %8 = icmp eq ptr %6, %7
  br i1 %8, label %9, label %_ZNKSt7__cxx1112basic_stringIcSt11char_traitsIcESaIcEE11_M_is_localEv.exit.i

9:                                                ; preds = %3
  %10 = getelementptr inbounds nuw i8, ptr %2, i64 8
  %11 = load i64, ptr %10, align 8, !tbaa !51
  %12 = icmp ult i64 %11, 16
  tail call void @llvm.assume(i1 %12)
  %13 = add nuw nsw i64 %11, 1
  tail call void @llvm.memcpy.p0.p0.i64(ptr noundef nonnull align 8 dereferenceable(1) %5, ptr noundef nonnull align 8 dereferenceable(1) %7, i64 %13, i1 false)
  br label %_ZNSt7__cxx1112basic_stringIcSt11char_traitsIcESaIcEEC2EOS4_.exit

_ZNKSt7__cxx1112basic_stringIcSt11char_traitsIcESaIcEE11_M_is_localEv.exit.i: ; preds = %3
  store ptr %6, ptr %4, align 8, !tbaa !48
  %14 = load i64, ptr %7, align 8, !tbaa !34
  store i64 %14, ptr %5, align 8, !tbaa !34
  br label %_ZNSt7__cxx1112basic_stringIcSt11char_traitsIcESaIcEEC2EOS4_.exit

_ZNSt7__cxx1112basic_stringIcSt11char_traitsIcESaIcEEC2EOS4_.exit: ; preds = %9, %_ZNKSt7__cxx1112basic_stringIcSt11char_traitsIcESaIcEE11_M_is_localEv.exit.i
  %15 = getelementptr inbounds nuw i8, ptr %2, i64 8
  %16 = load i64, ptr %15, align 8, !tbaa !51
  %17 = getelementptr inbounds nuw i8, ptr %0, i64 16
  store i64 %16, ptr %17, align 8, !tbaa !51
  store ptr %7, ptr %2, align 8, !tbaa !48
  store i64 0, ptr %15, align 8, !tbaa !51
  store i8 0, ptr %7, align 1, !tbaa !34
  ret void
}